; Function Attrs: nounwind uwtable
define internal range(i32 0, 2) i32 @opj_jp2_skip_jp2c(ptr noundef writeonly captures(none) initializes((96, 104)) %0, ptr noundef %1, ptr noundef %2) #0 {
  %4 = tail call i64 @opj_stream_tell(ptr noundef %1) #6
  %5 = getelementptr inbounds nuw i8, ptr %0, i64 96
  store i64 %4, ptr %5, align 8, !tbaa !121
  %6 = tail call i64 @opj_stream_skip(ptr noundef %1, i64 noundef 8, ptr noundef %2) #6
  %.not = icmp eq i64 %6, 8
  %. = zext i1 %.not to i32
  ret i32 %.
}